target datalayout = "e-m:e-p270:32:32-p271:32:32-p272:64:64-i64:64-i128:128-f80:128-n8:16:32:64-S128"
target triple = "x86_64-pc-linux-gnu"

%struct._zval_struct = type { %union._zend_value, %union.anon.2, %union.anon.5 }
%union._zend_value = type { i64 }
%union.anon.2 = type { i32 }
%union.anon.5 = type { i32 }
%struct._zend_refcounted_h = type { i32, %union.anon.6 }
%union.anon.6 = type { i32 }
%struct._zend_object = type { %struct._zend_refcounted_h, i32, ptr, ptr, ptr, [1 x %struct._zval_struct] }
%struct.spl_filesystem_iterator = type { %struct._zend_object_iterator, %struct._zval_struct, ptr }
%struct._zend_object_iterator = type { %struct._zend_object, %struct._zval_struct, ptr, i64 }

@.str.112 = private unnamed_addr constant [53 x i8] c"An iterator cannot be used with foreach by reference\00", align 1

; Function Attrs: nounwind uwtable
define internal ptr @spl_filesystem_object_to_iterator(ptr noundef %0) #0 {
  %2 = alloca ptr, align 8
  %3 = alloca ptr, align 8
  store ptr %0, ptr %2, align 8
  %4 = call noalias ptr @_ecalloc(i64 noundef 1, i64 noundef 112) #16
  store ptr %4, ptr %3, align 8
  %5 = load ptr, ptr %2, align 8
  %6 = load ptr, ptr %3, align 8
  %7 = getelementptr inbounds %struct.spl_filesystem_iterator, ptr %6, i32 0, i32 2
  store ptr %5, ptr %7, align 8
  %8 = load ptr, ptr %3, align 8
  %9 = getelementptr inbounds %struct.spl_filesystem_iterator, ptr %8, i32 0, i32 0
  call void @zend_iterator_init(ptr noundef %9)
  %10 = load ptr, ptr %3, align 8
  ret ptr %10
}

; Function Attrs: nounwind uwtable
define internal ptr @spl_filesystem_from_obj(ptr noundef %0) #0 {
  %2 = alloca ptr, align 8
  store ptr %0, ptr %2, align 8
  %3 = load ptr, ptr %2, align 8
  %4 = getelementptr inbounds i8, ptr %3, i64 -384
  ret ptr %4
}

; Function Attrs: nounwind uwtable
define internal ptr @spl_filesystem_dir_get_iterator(ptr noundef %0, ptr noundef %1, i32 noundef %2) #0 {
  %4 = alloca ptr, align 8
  %5 = alloca ptr, align 8
  %6 = alloca ptr, align 8
  %7 = alloca ptr, align 8
  %8 = alloca i32, align 4
  %9 = alloca ptr, align 8
  %10 = alloca ptr, align 8
  %11 = alloca ptr, align 8
  %12 = alloca ptr, align 8
  store ptr %0, ptr %6, align 8
  store ptr %1, ptr %7, align 8
  store i32 %2, ptr %8, align 4
  %13 = load i32, ptr %8, align 4
  %14 = icmp ne i32 %13, 0
  br i1 %14, label %15, label %16

15:                                               ; preds = %3
  call void (ptr, ptr, ...) @zend_throw_error(ptr noundef null, ptr noundef @.str.112)
  store ptr null, ptr %5, align 8
  br label %49

16:                                               ; preds = %3
  %17 = load ptr, ptr %7, align 8
  %18 = getelementptr inbounds %struct._zval_struct, ptr %17, i32 0, i32 0
  %19 = load ptr, ptr %18, align 8
  %20 = call ptr @spl_filesystem_from_obj(ptr noundef %19)
  store ptr %20, ptr %10, align 8
  %21 = load ptr, ptr %10, align 8
  %22 = call ptr @spl_filesystem_object_to_iterator(ptr noundef %21)
  store ptr %22, ptr %9, align 8
  br label %23

23:                                               ; preds = %16
  %24 = load ptr, ptr %9, align 8
  %25 = getelementptr inbounds %struct.spl_filesystem_iterator, ptr %24, i32 0, i32 0
  %26 = getelementptr inbounds %struct._zend_object_iterator, ptr %25, i32 0, i32 1
  store ptr %26, ptr %11, align 8
  %27 = load ptr, ptr %7, align 8
  %28 = getelementptr inbounds %struct._zval_struct, ptr %27, i32 0, i32 0
  %29 = load ptr, ptr %28, align 8
  store ptr %29, ptr %12, align 8
  %30 = load ptr, ptr %12, align 8
  %31 = getelementptr inbounds %struct._zend_object, ptr %30, i32 0, i32 0
  store ptr %31, ptr %4, align 8
  %32 = load ptr, ptr %4, align 8
  %33 = load i32, ptr %32, align 4
  %34 = add i32 %33, 1
  store i32 %34, ptr %32, align 4
  %35 = load ptr, ptr %12, align 8
  %36 = load ptr, ptr %11, align 8
  %37 = getelementptr inbounds %struct._zval_struct, ptr %36, i32 0, i32 0
  store ptr %35, ptr %37, align 8
  %38 = load ptr, ptr %11, align 8
  %39 = getelementptr inbounds %struct._zval_struct, ptr %38, i32 0, i32 1
  store i32 776, ptr %39, align 8
  br label %40

40:                                               ; preds = %23
  %41 = load ptr, ptr %9, align 8
  %42 = getelementptr inbounds %struct.spl_filesystem_iterator, ptr %41, i32 0, i32 0
  %43 = getelementptr inbounds %struct._zend_object_iterator, ptr %42, i32 0, i32 2
  store ptr @spl_filesystem_dir_it_funcs, ptr %43, align 8
  %44 = load ptr, ptr %9, align 8
  %45 = getelementptr inbounds %struct.spl_filesystem_iterator, ptr %44, i32 0, i32 1
  %46 = load ptr, ptr %7, align 8
  call void @llvm.memcpy.p0.p0.i64(ptr align 8 %45, ptr align 8 %46, i64 16, i1 false)
  %47 = load ptr, ptr %9, align 8
  %48 = getelementptr inbounds %struct.spl_filesystem_iterator, ptr %47, i32 0, i32 0
  store ptr %48, ptr %5, align 8
  br label %49

49:                                               ; preds = %40, %15
  %50 = load ptr, ptr %5, align 8
  ret ptr %50
}