; Function Attrs: nounwind uwtable
define internal noundef ptr @spl_filesystem_dir_get_iterator(ptr nocapture readnone %0, ptr nocapture noundef readonly %1, i32 noundef %2) #0 {
  %.not = icmp eq i32 %2, 0
  br i1 %.not, label %5, label %4

4:                                                ; preds = %3
  tail call void (ptr, ptr, ...) @zend_throw_error(ptr noundef null, ptr noundef nonnull @.str.112) #18
  br label %17

5:                                                ; preds = %3
  %6 = load ptr, ptr %1, align 8
  %7 = getelementptr inbounds i8, ptr %6, i64 -384
  %8 = tail call noalias dereferenceable_or_null(112) ptr @_ecalloc(i64 noundef 1, i64 noundef 112) #22
  %9 = getelementptr inbounds i8, ptr %8, i64 104
  store ptr %7, ptr %9, align 8
  tail call void @zend_iterator_init(ptr noundef %8) #18
  %10 = getelementptr inbounds i8, ptr %8, i64 56
  %11 = load ptr, ptr %1, align 8
  %12 = load i32, ptr %11, align 4
  %13 = add i32 %12, 1
  store i32 %13, ptr %11, align 4
  store ptr %11, ptr %10, align 8
  %14 = getelementptr inbounds i8, ptr %8, i64 64
  store i32 776, ptr %14, align 8
  %15 = getelementptr inbounds i8, ptr %8, i64 72
  store ptr @spl_filesystem_dir_it_funcs, ptr %15, align 8
  %16 = getelementptr inbounds i8, ptr %8, i64 88
  tail call void @llvm.memcpy.p0.p0.i64(ptr noundef nonnull align 8 dereferenceable(16) %16, ptr noundef nonnull align 8 dereferenceable(16) %1, i64 16, i1 false)
  br label %17

17:                                               ; preds = %5, %4
  %.0 = phi ptr [ null, %4 ], [ %8, %5 ]
  ret ptr %.0
}